; ModuleID = 'bench/ffmpeg/original/flacenc_header.ll'
source_filename = "bench/ffmpeg/original/flacenc_header.ll"
target datalayout = "e-m:e-p270:32:32-p271:32:32-p272:64:64-i64:64-i128:128-f80:128-n8:16:32:64-S128"
target triple = "x86_64-pc-linux-gnu"

; Function Attrs: nounwind uwtable
define range(i32 -1094995529, 1) i32 @ff_flac_write_header(ptr noundef %0, ptr noundef %1, i32 noundef %2, i32 noundef %3) local_unnamed_addr #0 {
  %5 = alloca [8 x i8], align 8
  call void @llvm.lifetime.start.p0(i64 8, ptr nonnull %5) #4
  store i64 2449958198419999846, ptr %5, align 8
  %.not = icmp eq i32 %3, 0
  %6 = select i1 %.not, i8 0, i8 -128
  %7 = getelementptr inbounds nuw i8, ptr %5, i64 4
  store i8 %6, ptr %7, align 4, !tbaa !4
  %8 = icmp slt i32 %2, 34
  br i1 %8, label %10, label %9

9:                                                ; preds = %4
  call void @avio_write(ptr noundef %0, ptr noundef nonnull %5, i32 noundef 8) #4
  call void @avio_write(ptr noundef %0, ptr noundef %1, i32 noundef 34) #4
  br label %10

10:                                               ; preds = %4, %9
  %.0 = phi i32 [ 0, %9 ], [ -1094995529, %4 ]
  call void @llvm.lifetime.end.p0(i64 8, ptr nonnull %5) #4
  ret i32 %.0
}

; Function Attrs: mustprogress nocallback nofree nosync nounwind willreturn memory(argmem: readwrite)
declare void @llvm.lifetime.start.p0(i64 immarg, ptr captures(none)) #1

declare void @avio_write(ptr noundef, ptr noundef, i32 noundef) local_unnamed_addr #2

; Function Attrs: mustprogress nocallback nofree nosync nounwind willreturn memory(argmem: readwrite)
declare void @llvm.lifetime.end.p0(i64 immarg, ptr captures(none)) #1

; Function Attrs: mustprogress nofree norecurse nosync nounwind willreturn memory(none) uwtable
define range(i32 0, 2) i32 @ff_flac_is_native_layout(i64 noundef %0) local_unnamed_addr #3 {
  switch i64 %0, label %2 [
    i64 1807, label %3
    i64 1599, label %3
    i64 1551, label %3
    i64 1543, label %3
    i64 51, label %3
    i64 7, label %3
    i64 4, label %3
    i64 3, label %3
  ]

2:                                                ; preds = %1
  br label %3

3:                                                ; preds = %1, %1, %1, %1, %1, %1, %1, %1, %2
  %.0 = phi i32 [ 0, %2 ], [ 1, %1 ], [ 1, %1 ], [ 1, %1 ], [ 1, %1 ], [ 1, %1 ], [ 1, %1 ], [ 1, %1 ], [ 1, %1 ]
  ret i32 %.0
}


!llvm.module.flags = !{!0, !1, !2, !3}

!0 = !{i32 1, !"wchar_size", i32 4}
!1 = !{i32 8, !"PIC Level", i32 2}
!2 = !{i32 7, !"uwtable", i32 2}
!3 = !{i32 1, !"override-stack-alignment", i32 16}
!4 = !{!5, !5, i64 0}
!5 = !{!"omnipotent char", !6, i64 0}
!6 = !{!"Simple C/C++ TBAA"}
